Certificate:
    Data:
        Version: 3 (0x2)
        Serial Number: 1048583 (0x100007)
    Signature Algorithm: sha1WithRSAEncryption
        Issuer: C=PT, ST=Lisbon, O=SecureSMS
        Validity
            Not Before: Nov 26 22:33:01 2015 GMT
            Not After : Nov 25 22:33:01 2016 GMT
        Subject: C=PT, ST=Lisbon, L=Lisbon, O=Ana Beatriz Alves, OU=Signing, CN=+351927519814
        Subject Public Key Info:
            Public Key Algorithm: id-ecPublicKey
                Public-Key: (225 bit)
                pub: 
                    04:25:65:69:30:6a:b2:91:a0:f3:b5:fe:3e:d9:9e:
                    4b:17:ad:9e:8c:97:f2:c5:8f:54:d0:33:41:49:91:
                    d1:c6:f3:57:5a:93:86:65:d5:26:ee:4e:81:c3:4f:
                    97:e7:0c:db:cc:06:1e:59:51:8b:33:3d
                Field Type: prime-field
                Prime:
                    00:ff:ff:ff:ff:ff:ff:ff:ff:ff:ff:ff:ff:ff:ff:
                    ff:ff:ff:ff:ff:ff:ff:ff:ff:fe:ff:ff:e5:6d
                A:    0
                B:    5 (0x5)
                Generator (uncompressed):
                    04:a1:45:5b:33:4d:f0:99:df:30:fc:28:a1:69:a4:
                    67:e9:e4:70:75:a9:0f:7e:65:0e:b6:b7:a4:5c:7e:
                    08:9f:ed:7f:ba:34:42:82:ca:fb:d6:f7:e3:19:f7:
                    c0:b0:bd:59:e2:ca:4b:db:55:6d:61:a5
                Order: 
                    01:00:00:00:00:00:00:00:00:00:00:00:00:00:01:
                    dc:e8:d2:ec:61:84:ca:f0:a9:71:76:9f:b1:f7
                Cofactor:  1 (0x1)
        X509v3 extensions:
            X509v3 Subject Key Identifier: 
                9E:EE:D1:99:50:EC:41:E2:96:94:49:48:10:79:19:0B:76:32:16:66
            X509v3 Basic Constraints: 
                CA:FALSE
            X509v3 Key Usage: 
                Digital Signature, Non Repudiation, Key Encipherment
            Netscape Cert Type: 
                SSL Client, S/MIME
            Netscape Comment: 
                OpenSSL Generated Certificate
            X509v3 Authority Key Identifier: 
                keyid:0A:1E:EA:6E:A8:4F:8C:7C:00:C0:0C:C4:A2:B4:73:EE:3F:3E:8E:29
                DirName:/C=PT/ST=Lisbon/O=SecureSMS
                serial:D0:CA:F9:A7:2D:E2:8E:BA

    Signature Algorithm: sha1WithRSAEncryption
         0a:18:9b:05:5e:07:ad:80:7e:92:0e:a3:d9:5e:f5:56:a6:be:
         b8:e9:72:8f:e1:64:9c:14:85:0f:88:d8:8a:e5:95:91:1e:bc:
         4f:89:d7:0f:2b:79:86:72:4d:ef:90:04:3e:34:bb:e0:ac:3b:
         85:36:c7:8c:d8:9d:23:32:d7:16:6d:bb:ff:bb:65:41:ca:68:
         bb:bc:16:e0:95:be:c8:f3:b8:d0:19:3f:27:33:07:0c:8a:fe:
         88:5c:30:3b:be:f1:d8:84:d7:cf:73:1c:05:d5:bc:76:6d:e3:
         5d:da:f4:1f:ae:ad:b8:6e:f5:2b:04:97:78:4f:3a:b0:50:cf:
         a0:04
-----BEGIN CERTIFICATE-----
MIIDPTCCAqagAwIBAgIDEAAHMA0GCSqGSIb3DQEBBQUAMDIxCzAJBgNVBAYTAlBU
MQ8wDQYDVQQIDAZMaXNib24xEjAQBgNVBAoMCVNlY3VyZVNNUzAeFw0xNTExMjYy
MjMzMDFaFw0xNjExMjUyMjMzMDFaMHUxCzAJBgNVBAYTAlBUMQ8wDQYDVQQIDAZM
aXNib24xDzANBgNVBAcMBkxpc2JvbjEaMBgGA1UECgwRQW5hIEJlYXRyaXogQWx2
ZXMxEDAOBgNVBAsMB1NpZ25pbmcxFjAUBgNVBAMMDSszNTE5Mjc1MTk4MTQwgd0w
gZ4GByqGSM49AgEwgZICAQEwKAYHKoZIzj0BAQIdAP//////////////////////
/////////v//5W0wBgQBAAQBBQQ5BKFFWzNN8JnfMPwooWmkZ+nkcHWpD35lDra3
pFx+CJ/tf7o0QoLK+9b34xn3wLC9WeLKS9tVbWGlAh0BAAAAAAAAAAAAAAAAAAHc
6NLsYYTK8Klxdp+x9wIBAQM6AAQlZWkwarKRoPO1/j7ZnksXrZ6Ml/LFj1TQM0FJ
kdHG81dak4Zl1SbuToHDT5fnDNvMBh5ZUYszPaOB3zCB3DAdBgNVHQ4EFgQUnu7R
mVDsQeKWlElIEHkZC3YyFmYwCQYDVR0TBAIwADALBgNVHQ8EBAMCBeAwEQYJYIZI
AYb4QgEBBAQDAgWgMCwGCWCGSAGG+EIBDQQfFh1PcGVuU1NMIEdlbmVyYXRlZCBD
ZXJ0aWZpY2F0ZTBiBgNVHSMEWzBZgBQKHupuqE+MfADADMSitHPuPz6OKaE2pDQw
MjELMAkGA1UEBhMCUFQxDzANBgNVBAgMBkxpc2JvbjESMBAGA1UECgwJU2VjdXJl
U01TggkA0Mr5py3ijrowDQYJKoZIhvcNAQEFBQADgYEAChibBV4HrYB+kg6j2V71
Vqa+uOlyj+FknBSFD4jYiuWVkR68T4nXDyt5hnJN75AEPjS74Kw7hTbHjNidIzLX
Fm27/7tlQcpou7wW4JW+yPO40Bk/JzMHDIr+iFwwO77x2ITXz3McBdW8dm3jXdr0
H66tuG71KwSXeE86sFDPoAQ=
-----END CERTIFICATE-----
Certificate:
    Data:
        Version: 3 (0x2)
        Serial Number: 1048582 (0x100006)
    Signature Algorithm: sha1WithRSAEncryption
        Issuer: C=PT, ST=Lisbon, O=SecureSMS
        Validity
            Not Before: Nov 26 22:32:53 2015 GMT
            Not After : Nov 25 22:32:53 2016 GMT
        Subject: C=PT, ST=Lisbon, L=Lisbon, O=Ana Beatriz Alves, OU=Encryption, CN=+351927519814
        Subject Public Key Info:
            Public Key Algorithm: rsaEncryption
                Public-Key: (2048 bit)
                Modulus:
                    00:a1:03:79:cf:5d:f3:f8:46:71:62:35:65:41:77:
                    dc:41:38:fd:e4:84:44:7b:1d:49:8e:cb:f2:22:d9:
                    ce:7a:ef:08:7d:f8:75:37:58:49:ff:3d:d4:5e:64:
                    a2:2a:93:17:05:92:05:c1:11:ee:0d:c4:8f:9f:2c:
                    4c:be:84:56:d7:e5:ab:2d:06:76:6a:7e:20:62:5f:
                    1f:0b:f3:05:e4:4c:21:be:22:77:aa:08:2a:ed:5a:
                    3c:23:2c:95:a1:37:ef:4e:0c:b8:ba:87:b2:bb:80:
                    dd:f1:1f:1f:d4:4a:68:47:b8:ba:3a:75:dc:61:27:
                    24:63:8f:e4:49:eb:46:15:40:5d:87:5f:4a:64:67:
                    8d:8d:0a:32:57:bc:f5:ad:57:60:26:1e:32:22:e1:
                    52:04:85:da:8f:67:9f:74:10:76:ae:98:76:98:5f:
                    10:66:65:87:70:75:cd:a4:e3:07:66:57:af:8e:19:
                    6d:67:bf:7e:44:5f:ca:4d:86:b5:16:55:29:08:a1:
                    6a:8d:b6:69:4a:78:e9:11:99:1f:93:9c:e9:16:ad:
                    d3:f4:44:98:08:63:f2:2d:79:d8:19:2e:cd:e4:e5:
                    31:25:aa:ad:43:13:a2:dc:ce:df:48:6e:80:0f:ec:
                    f6:63:be:59:5d:db:f8:8e:b9:b1:a7:97:36:61:f3:
                    a9:03
                Exponent: 65537 (0x10001)
        X509v3 extensions:
            X509v3 Subject Key Identifier: 
                37:B0:55:72:AD:1E:1F:19:D1:39:F7:CF:46:3F:F1:A8:7B:6C:AA:58
            X509v3 Basic Constraints: 
                CA:FALSE
            X509v3 Key Usage: 
                Digital Signature, Non Repudiation, Key Encipherment
            Netscape Cert Type: 
                SSL Client, S/MIME
            Netscape Comment: 
                OpenSSL Generated Certificate
            X509v3 Authority Key Identifier: 
                keyid:0A:1E:EA:6E:A8:4F:8C:7C:00:C0:0C:C4:A2:B4:73:EE:3F:3E:8E:29
                DirName:/C=PT/ST=Lisbon/O=SecureSMS
                serial:D0:CA:F9:A7:2D:E2:8E:BA

    Signature Algorithm: sha1WithRSAEncryption
         2d:10:fe:f2:39:65:2f:3e:b7:bd:6c:bf:2e:d7:9f:1f:43:da:
         67:ef:4e:b6:5a:a6:d6:a9:c6:37:a3:b8:d7:e6:51:44:c0:c8:
         73:4f:fb:00:9e:65:60:8f:92:7f:68:26:e5:20:3c:a9:06:22:
         42:ec:63:ce:08:83:24:7e:2d:60:c8:e6:5b:22:54:b5:9b:da:
         fe:ba:0d:83:7a:f3:c2:ef:9f:e7:5b:95:b8:cf:ee:04:41:a8:
         2e:31:f8:fc:58:d8:62:7d:da:82:52:3b:fc:28:ae:5f:b7:dd:
         1a:f1:7f:60:51:52:07:d1:9b:95:95:ea:1f:17:71:c9:db:8f:
         57:94
-----BEGIN CERTIFICATE-----
MIIDhjCCAu+gAwIBAgIDEAAGMA0GCSqGSIb3DQEBBQUAMDIxCzAJBgNVBAYTAlBU
MQ8wDQYDVQQIDAZMaXNib24xEjAQBgNVBAoMCVNlY3VyZVNNUzAeFw0xNTExMjYy
MjMyNTNaFw0xNjExMjUyMjMyNTNaMHgxCzAJBgNVBAYTAlBUMQ8wDQYDVQQIDAZM
aXNib24xDzANBgNVBAcMBkxpc2JvbjEaMBgGA1UECgwRQW5hIEJlYXRyaXogQWx2
ZXMxEzARBgNVBAsMCkVuY3J5cHRpb24xFjAUBgNVBAMMDSszNTE5Mjc1MTk4MTQw
ggEiMA0GCSqGSIb3DQEBAQUAA4IBDwAwggEKAoIBAQChA3nPXfP4RnFiNWVBd9xB
OP3khER7HUmOy/Ii2c567wh9+HU3WEn/PdReZKIqkxcFkgXBEe4NxI+fLEy+hFbX
5astBnZqfiBiXx8L8wXkTCG+IneqCCrtWjwjLJWhN+9ODLi6h7K7gN3xHx/USmhH
uLo6ddxhJyRjj+RJ60YVQF2HX0pkZ42NCjJXvPWtV2AmHjIi4VIEhdqPZ590EHau
mHaYXxBmZYdwdc2k4wdmV6+OGW1nv35EX8pNhrUWVSkIoWqNtmlKeOkRmR+TnOkW
rdP0RJgIY/ItedgZLs3k5TElqq1DE6Lczt9IboAP7PZjvlld2/iOubGnlzZh86kD
AgMBAAGjgd8wgdwwHQYDVR0OBBYEFDewVXKtHh8Z0Tn3z0Y/8ah7bKpYMAkGA1Ud
EwQCMAAwCwYDVR0PBAQDAgXgMBEGCWCGSAGG+EIBAQQEAwIFoDAsBglghkgBhvhC
AQ0EHxYdT3BlblNTTCBHZW5lcmF0ZWQgQ2VydGlmaWNhdGUwYgYDVR0jBFswWYAU
Ch7qbqhPjHwAwAzEorRz7j8+jimhNqQ0MDIxCzAJBgNVBAYTAlBUMQ8wDQYDVQQI
DAZMaXNib24xEjAQBgNVBAoMCVNlY3VyZVNNU4IJANDK+act4o66MA0GCSqGSIb3
DQEBBQUAA4GBAC0Q/vI5ZS8+t71svy7Xnx9D2mfvTrZaptapxjejuNfmUUTAyHNP
+wCeZWCPkn9oJuUgPKkGIkLsY84IgyR+LWDI5lsiVLWb2v66DYN688Lvn+dblbjP
7gRBqC4x+PxY2GJ92oJSO/worl+33Rrxf2BRUgfRm5WV6h8Xccnbj1eU
-----END CERTIFICATE-----
