Certificate:
    Data:
        Version: 3 (0x2)
        Serial Number: 1048581 (0x100005)
    Signature Algorithm: sha1WithRSAEncryption
        Issuer: C=PT, ST=Lisbon, O=SecureSMS
        Validity
            Not Before: Nov 26 22:27:49 2015 GMT
            Not After : Nov 25 22:27:49 2016 GMT
        Subject: C=PT, ST=Lisbon, L=Lisbon, O=Joao Neves, OU=Signing, CN=+351918634801
        Subject Public Key Info:
            Public Key Algorithm: id-ecPublicKey
                Public-Key: (225 bit)
                pub: 
                    04:b4:b0:7c:59:81:5a:af:b3:4c:bf:e9:eb:7d:ae:
                    28:1c:bf:e3:fc:fb:94:87:cb:64:4b:5b:4a:ac:54:
                    7a:9d:ec:25:7e:ec:35:c4:1d:b8:ab:0e:52:a5:ca:
                    41:fa:8d:14:13:3f:11:c8:d0:87:27:5d
                Field Type: prime-field
                Prime:
                    00:ff:ff:ff:ff:ff:ff:ff:ff:ff:ff:ff:ff:ff:ff:
                    ff:ff:ff:ff:ff:ff:ff:ff:ff:fe:ff:ff:e5:6d
                A:    0
                B:    5 (0x5)
                Generator (uncompressed):
                    04:a1:45:5b:33:4d:f0:99:df:30:fc:28:a1:69:a4:
                    67:e9:e4:70:75:a9:0f:7e:65:0e:b6:b7:a4:5c:7e:
                    08:9f:ed:7f:ba:34:42:82:ca:fb:d6:f7:e3:19:f7:
                    c0:b0:bd:59:e2:ca:4b:db:55:6d:61:a5
                Order: 
                    01:00:00:00:00:00:00:00:00:00:00:00:00:00:01:
                    dc:e8:d2:ec:61:84:ca:f0:a9:71:76:9f:b1:f7
                Cofactor:  1 (0x1)
        X509v3 extensions:
            X509v3 Subject Key Identifier: 
                25:31:18:E6:F4:5A:95:8B:30:6D:FB:87:20:13:E0:A4:77:4D:9C:CC
            X509v3 Basic Constraints: 
                CA:FALSE
            X509v3 Key Usage: 
                Digital Signature, Non Repudiation, Key Encipherment
            Netscape Cert Type: 
                SSL Client, S/MIME
            Netscape Comment: 
                OpenSSL Generated Certificate
            X509v3 Authority Key Identifier: 
                keyid:0A:1E:EA:6E:A8:4F:8C:7C:00:C0:0C:C4:A2:B4:73:EE:3F:3E:8E:29
                DirName:/C=PT/ST=Lisbon/O=SecureSMS
                serial:D0:CA:F9:A7:2D:E2:8E:BA

    Signature Algorithm: sha1WithRSAEncryption
         3d:c5:f7:10:e1:69:66:bf:80:7e:08:29:53:4a:31:88:29:55:
         e7:76:ff:75:cf:c8:fa:72:c4:21:37:73:fd:50:54:41:fc:69:
         67:41:59:55:fc:35:84:37:d0:d2:93:15:fb:6d:11:77:28:c0:
         42:fa:01:1f:75:4e:42:c1:42:1a:89:8f:2c:bc:c7:2d:23:37:
         16:9e:de:41:4a:4b:18:af:b5:d6:e1:4a:bc:5c:e8:f2:08:6e:
         16:fb:df:f2:60:01:cb:93:31:23:2f:de:5c:6a:81:fe:b8:33:
         18:e8:61:73:57:7e:88:9a:fc:d8:64:cc:4a:6f:c3:4e:98:33:
         9f:3a
-----BEGIN CERTIFICATE-----
MIIDNjCCAp+gAwIBAgIDEAAFMA0GCSqGSIb3DQEBBQUAMDIxCzAJBgNVBAYTAlBU
MQ8wDQYDVQQIDAZMaXNib24xEjAQBgNVBAoMCVNlY3VyZVNNUzAeFw0xNTExMjYy
MjI3NDlaFw0xNjExMjUyMjI3NDlaMG4xCzAJBgNVBAYTAlBUMQ8wDQYDVQQIDAZM
aXNib24xDzANBgNVBAcMBkxpc2JvbjETMBEGA1UECgwKSm9hbyBOZXZlczEQMA4G
A1UECwwHU2lnbmluZzEWMBQGA1UEAwwNKzM1MTkxODYzNDgwMTCB3TCBngYHKoZI
zj0CATCBkgIBATAoBgcqhkjOPQEBAh0A///////////////////////////////+
///lbTAGBAEABAEFBDkEoUVbM03wmd8w/CihaaRn6eRwdakPfmUOtrekXH4In+1/
ujRCgsr71vfjGffAsL1Z4spL21VtYaUCHQEAAAAAAAAAAAAAAAAAAdzo0uxhhMrw
qXF2n7H3AgEBAzoABLSwfFmBWq+zTL/p632uKBy/4/z7lIfLZEtbSqxUep3sJX7s
NcQduKsOUqXKQfqNFBM/EcjQhyddo4HfMIHcMB0GA1UdDgQWBBQlMRjm9FqVizBt
+4cgE+Ckd02czDAJBgNVHRMEAjAAMAsGA1UdDwQEAwIF4DARBglghkgBhvhCAQEE
BAMCBaAwLAYJYIZIAYb4QgENBB8WHU9wZW5TU0wgR2VuZXJhdGVkIENlcnRpZmlj
YXRlMGIGA1UdIwRbMFmAFAoe6m6oT4x8AMAMxKK0c+4/Po4poTakNDAyMQswCQYD
VQQGEwJQVDEPMA0GA1UECAwGTGlzYm9uMRIwEAYDVQQKDAlTZWN1cmVTTVOCCQDQ
yvmnLeKOujANBgkqhkiG9w0BAQUFAAOBgQA9xfcQ4Wlmv4B+CClTSjGIKVXndv91
z8j6csQhN3P9UFRB/GlnQVlV/DWEN9DSkxX7bRF3KMBC+gEfdU5CwUIaiY8svMct
IzcWnt5BSksYr7XW4Uq8XOjyCG4W+9/yYAHLkzEjL95caoH+uDMY6GFzV36ImvzY
ZMxKb8NOmDOfOg==
-----END CERTIFICATE-----
Certificate:
    Data:
        Version: 3 (0x2)
        Serial Number: 1048580 (0x100004)
    Signature Algorithm: sha1WithRSAEncryption
        Issuer: C=PT, ST=Lisbon, O=SecureSMS
        Validity
            Not Before: Nov 26 22:27:36 2015 GMT
            Not After : Nov 25 22:27:36 2016 GMT
        Subject: C=PT, ST=Lisbon, L=Lisbon, O=Joao Neves, OU=Encryption, CN=+351918634801
        Subject Public Key Info:
            Public Key Algorithm: rsaEncryption
                Public-Key: (2048 bit)
                Modulus:
                    00:a1:6e:3f:31:43:ed:1b:92:25:7f:47:a3:f5:07:
                    be:9f:c8:60:13:0a:97:58:82:55:46:5c:e4:d5:a1:
                    8b:97:a1:d7:d3:6d:04:97:b6:a7:ff:01:c4:03:e5:
                    fa:09:32:58:f8:66:90:bb:f1:a3:d3:c5:e8:b6:0c:
                    fd:f5:b4:23:ca:e4:09:f2:8e:d2:3c:46:46:f5:1e:
                    f4:d6:bb:f6:7f:03:0e:57:f8:13:33:2e:b8:a3:da:
                    49:93:28:52:6c:38:f4:ff:ce:cc:3c:83:86:2f:50:
                    13:44:24:16:a5:c8:3c:07:70:c9:df:f5:b8:f3:d8:
                    3e:f4:8f:56:76:10:ce:9c:2c:24:b1:19:90:b8:2c:
                    74:0f:a3:8d:36:2c:b6:ef:94:3f:5e:12:42:db:44:
                    77:1c:0f:ea:89:96:9b:1d:9d:88:82:53:5d:46:69:
                    b0:96:39:ef:b1:20:1d:fd:64:a0:30:87:a2:54:ef:
                    e1:96:eb:dd:e3:c2:64:6c:31:db:db:ac:61:53:65:
                    07:f5:86:c2:a0:3e:8f:a7:79:b8:62:85:11:df:ea:
                    80:e6:33:01:7e:61:54:59:7f:4f:9d:e5:6b:d3:10:
                    76:35:15:45:8d:43:fa:02:2e:fb:ba:96:ec:6b:96:
                    f6:b0:7b:08:03:ab:a2:c9:48:f6:b1:d4:53:73:76:
                    89:65
                Exponent: 65537 (0x10001)
        X509v3 extensions:
            X509v3 Subject Key Identifier: 
                9C:6C:01:31:7C:67:95:01:AA:C4:66:C6:F5:6C:C5:D6:F1:31:5D:BA
            X509v3 Basic Constraints: 
                CA:FALSE
            X509v3 Key Usage: 
                Digital Signature, Non Repudiation, Key Encipherment
            Netscape Cert Type: 
                SSL Client, S/MIME
            Netscape Comment: 
                OpenSSL Generated Certificate
            X509v3 Authority Key Identifier: 
                keyid:0A:1E:EA:6E:A8:4F:8C:7C:00:C0:0C:C4:A2:B4:73:EE:3F:3E:8E:29
                DirName:/C=PT/ST=Lisbon/O=SecureSMS
                serial:D0:CA:F9:A7:2D:E2:8E:BA

    Signature Algorithm: sha1WithRSAEncryption
         85:a3:f5:4d:a5:d3:a1:19:93:c4:33:56:d8:4a:73:31:9a:fd:
         26:0f:08:87:20:13:bf:dd:55:66:87:00:14:59:5e:28:4c:b8:
         45:35:33:a9:e6:fd:c1:4c:ac:92:5f:db:e3:79:96:8f:80:41:
         ca:27:b6:c0:31:50:8f:45:18:5d:13:1f:29:a0:e8:7e:24:f0:
         57:1a:ee:35:58:32:ef:5e:f0:e3:89:78:8e:fd:ca:d4:48:65:
         cc:3a:d2:a4:0c:17:ae:33:49:af:4d:a0:93:68:d0:cf:8c:01:
         e9:d6:19:34:06:d4:7e:f3:80:78:98:ce:45:c0:9a:02:da:82:
         43:0f
-----BEGIN CERTIFICATE-----
MIIDfzCCAuigAwIBAgIDEAAEMA0GCSqGSIb3DQEBBQUAMDIxCzAJBgNVBAYTAlBU
MQ8wDQYDVQQIDAZMaXNib24xEjAQBgNVBAoMCVNlY3VyZVNNUzAeFw0xNTExMjYy
MjI3MzZaFw0xNjExMjUyMjI3MzZaMHExCzAJBgNVBAYTAlBUMQ8wDQYDVQQIDAZM
aXNib24xDzANBgNVBAcMBkxpc2JvbjETMBEGA1UECgwKSm9hbyBOZXZlczETMBEG
A1UECwwKRW5jcnlwdGlvbjEWMBQGA1UEAwwNKzM1MTkxODYzNDgwMTCCASIwDQYJ
KoZIhvcNAQEBBQADggEPADCCAQoCggEBAKFuPzFD7RuSJX9Ho/UHvp/IYBMKl1iC
VUZc5NWhi5eh19NtBJe2p/8BxAPl+gkyWPhmkLvxo9PF6LYM/fW0I8rkCfKO0jxG
RvUe9Na79n8DDlf4EzMuuKPaSZMoUmw49P/OzDyDhi9QE0QkFqXIPAdwyd/1uPPY
PvSPVnYQzpwsJLEZkLgsdA+jjTYstu+UP14SQttEdxwP6omWmx2diIJTXUZpsJY5
77EgHf1koDCHolTv4Zbr3ePCZGwx29usYVNlB/WGwqA+j6d5uGKFEd/qgOYzAX5h
VFl/T53la9MQdjUVRY1D+gIu+7qW7GuW9rB7CAOroslI9rHUU3N2iWUCAwEAAaOB
3zCB3DAdBgNVHQ4EFgQUnGwBMXxnlQGqxGbG9WzF1vExXbowCQYDVR0TBAIwADAL
BgNVHQ8EBAMCBeAwEQYJYIZIAYb4QgEBBAQDAgWgMCwGCWCGSAGG+EIBDQQfFh1P
cGVuU1NMIEdlbmVyYXRlZCBDZXJ0aWZpY2F0ZTBiBgNVHSMEWzBZgBQKHupuqE+M
fADADMSitHPuPz6OKaE2pDQwMjELMAkGA1UEBhMCUFQxDzANBgNVBAgMBkxpc2Jv
bjESMBAGA1UECgwJU2VjdXJlU01TggkA0Mr5py3ijrowDQYJKoZIhvcNAQEFBQAD
gYEAhaP1TaXToRmTxDNW2EpzMZr9Jg8IhyATv91VZocAFFleKEy4RTUzqeb9wUys
kl/b43mWj4BByie2wDFQj0UYXRMfKaDofiTwVxruNVgy717w44l4jv3K1EhlzDrS
pAwXrjNJr02gk2jQz4wB6dYZNAbUfvOAeJjORcCaAtqCQw8=
-----END CERTIFICATE-----
