Certificate:
    Data:
        Version: 3 (0x2)
        Serial Number: 1048579 (0x100003)
    Signature Algorithm: sha1WithRSAEncryption
        Issuer: C=PT, ST=Lisbon, O=SecureSMS
        Validity
            Not Before: Nov 15 14:13:50 2015 GMT
            Not After : Nov 14 14:13:50 2016 GMT
        Subject: C=PT, ST=Lisbon, L=Lisbon, O=SecureSMS, OU=Signing, CN=918634801
        Subject Public Key Info:
            Public Key Algorithm: id-ecPublicKey
                Public-Key: (225 bit)
                pub: 
                    04:15:75:85:b9:99:d1:e5:d9:7d:af:42:91:29:61:
                    4e:c6:5c:3d:d8:51:f3:36:35:fd:5b:99:c2:80:20:
                    36:6a:25:17:c7:77:d7:84:3e:97:8f:52:87:29:c9:
                    6c:e3:16:f3:92:ab:1c:4d:8a:8e:79:0e
                Field Type: prime-field
                Prime:
                    00:ff:ff:ff:ff:ff:ff:ff:ff:ff:ff:ff:ff:ff:ff:
                    ff:ff:ff:ff:ff:ff:ff:ff:ff:fe:ff:ff:e5:6d
                A:    0
                B:    5 (0x5)
                Generator (uncompressed):
                    04:a1:45:5b:33:4d:f0:99:df:30:fc:28:a1:69:a4:
                    67:e9:e4:70:75:a9:0f:7e:65:0e:b6:b7:a4:5c:7e:
                    08:9f:ed:7f:ba:34:42:82:ca:fb:d6:f7:e3:19:f7:
                    c0:b0:bd:59:e2:ca:4b:db:55:6d:61:a5
                Order: 
                    01:00:00:00:00:00:00:00:00:00:00:00:00:00:01:
                    dc:e8:d2:ec:61:84:ca:f0:a9:71:76:9f:b1:f7
                Cofactor:  1 (0x1)
        X509v3 extensions:
            X509v3 Subject Key Identifier: 
                36:27:D6:24:A8:72:6B:8A:44:27:F4:70:2F:7A:73:D4:3F:18:5D:75
            X509v3 Basic Constraints: 
                CA:FALSE
            X509v3 Key Usage: 
                Digital Signature, Non Repudiation, Key Encipherment
            Netscape Cert Type: 
                SSL Client, S/MIME
            Netscape Comment: 
                OpenSSL Generated Certificate
            X509v3 Authority Key Identifier: 
                keyid:0A:1E:EA:6E:A8:4F:8C:7C:00:C0:0C:C4:A2:B4:73:EE:3F:3E:8E:29
                DirName:/C=PT/ST=Lisbon/O=SecureSMS
                serial:D0:CA:F9:A7:2D:E2:8E:BA

    Signature Algorithm: sha1WithRSAEncryption
         15:cf:ae:c1:69:1c:21:3e:ea:72:8e:80:16:88:16:9e:e1:5d:
         89:20:ea:fe:f1:02:44:d2:cb:b5:94:89:cf:49:1d:cc:8e:54:
         ed:79:e7:6e:e4:2a:58:ab:98:66:68:73:8e:74:ca:31:20:f7:
         3a:41:c5:33:49:8f:83:aa:e0:1d:9f:0f:9a:cb:60:ba:49:e8:
         cd:f2:71:bb:46:5c:42:c3:28:9e:a5:56:0b:dd:6a:4b:d1:09:
         6d:5a:5a:89:c7:5d:a9:a5:86:ee:dd:60:59:aa:2b:0e:e1:5c:
         7b:82:f7:ec:07:63:30:5a:99:5f:3d:a8:28:dc:c6:47:f8:73:
         4f:45
-----BEGIN CERTIFICATE-----
MIIDMTCCApqgAwIBAgIDEAADMA0GCSqGSIb3DQEBBQUAMDIxCzAJBgNVBAYTAlBU
MQ8wDQYDVQQIDAZMaXNib24xEjAQBgNVBAoMCVNlY3VyZVNNUzAeFw0xNTExMTUx
NDEzNTBaFw0xNjExMTQxNDEzNTBaMGkxCzAJBgNVBAYTAlBUMQ8wDQYDVQQIDAZM
aXNib24xDzANBgNVBAcMBkxpc2JvbjESMBAGA1UECgwJU2VjdXJlU01TMRAwDgYD
VQQLDAdTaWduaW5nMRIwEAYDVQQDDAk5MTg2MzQ4MDEwgd0wgZ4GByqGSM49AgEw
gZICAQEwKAYHKoZIzj0BAQIdAP///////////////////////////////v//5W0w
BgQBAAQBBQQ5BKFFWzNN8JnfMPwooWmkZ+nkcHWpD35lDra3pFx+CJ/tf7o0QoLK
+9b34xn3wLC9WeLKS9tVbWGlAh0BAAAAAAAAAAAAAAAAAAHc6NLsYYTK8Klxdp+x
9wIBAQM6AAQVdYW5mdHl2X2vQpEpYU7GXD3YUfM2Nf1bmcKAIDZqJRfHd9eEPpeP
UocpyWzjFvOSqxxNio55DqOB3zCB3DAdBgNVHQ4EFgQUNifWJKhya4pEJ/RwL3pz
1D8YXXUwCQYDVR0TBAIwADALBgNVHQ8EBAMCBeAwEQYJYIZIAYb4QgEBBAQDAgWg
MCwGCWCGSAGG+EIBDQQfFh1PcGVuU1NMIEdlbmVyYXRlZCBDZXJ0aWZpY2F0ZTBi
BgNVHSMEWzBZgBQKHupuqE+MfADADMSitHPuPz6OKaE2pDQwMjELMAkGA1UEBhMC
UFQxDzANBgNVBAgMBkxpc2JvbjESMBAGA1UECgwJU2VjdXJlU01TggkA0Mr5py3i
jrowDQYJKoZIhvcNAQEFBQADgYEAFc+uwWkcIT7qco6AFogWnuFdiSDq/vECRNLL
tZSJz0kdzI5U7XnnbuQqWKuYZmhzjnTKMSD3OkHFM0mPg6rgHZ8PmstguknozfJx
u0ZcQsMonqVWC91qS9EJbVpaicddqaWG7t1gWaorDuFce4L37AdjMFqZXz2oKNzG
R/hzT0U=
-----END CERTIFICATE-----
