Certificate:
    Data:
        Version: 3 (0x2)
        Serial Number: 1048578 (0x100002)
    Signature Algorithm: sha1WithRSAEncryption
        Issuer: C=PT, ST=Lisbon, O=SecureSMS
        Validity
            Not Before: Nov 15 14:13:43 2015 GMT
            Not After : Nov 14 14:13:43 2016 GMT
        Subject: C=PT, ST=Lisbon, L=Lisbon, O=SecureSMS, OU=Encryption, CN=918634801
        Subject Public Key Info:
            Public Key Algorithm: rsaEncryption
                Public-Key: (2048 bit)
                Modulus:
                    00:df:a0:4e:bb:10:e8:14:f3:a1:d3:96:9f:86:62:
                    24:18:5a:c2:09:22:f9:65:51:bb:87:fe:ea:65:04:
                    a0:c9:06:ea:26:a8:4a:ae:f3:7b:9a:7d:02:7e:5a:
                    02:3c:4b:8c:8d:9a:ba:95:52:db:eb:1e:32:34:9c:
                    91:87:80:c3:b8:36:0b:70:5b:43:82:05:18:8b:c1:
                    07:d4:b8:47:c5:85:fa:9a:3d:ea:ca:cd:f8:20:e1:
                    97:fa:a3:0d:29:c5:ff:02:89:b8:9b:92:96:79:66:
                    5a:a4:42:48:54:b2:07:f6:e0:06:9c:5b:27:61:e3:
                    cb:37:ce:f9:9a:17:eb:27:5b:47:1f:5b:ed:9b:7b:
                    30:99:0e:4b:9b:8b:2f:52:08:31:c5:78:5b:06:b0:
                    94:d2:ed:c5:c5:8e:a4:69:66:2e:ac:06:7b:33:4d:
                    d6:90:e6:a9:33:86:03:19:48:ec:c1:6d:f4:a2:68:
                    09:fc:57:0b:dc:6a:7c:a5:1a:4f:fa:3e:1f:a3:96:
                    c8:25:f4:d7:b2:18:3e:f2:cc:a9:37:2f:4e:a2:19:
                    18:71:6f:2a:2c:22:31:30:97:a9:61:7b:d2:73:9e:
                    ce:91:e4:e2:64:02:6d:d3:58:0e:25:61:a4:16:d7:
                    a5:36:0e:ef:e6:5c:cc:53:5d:3c:e2:8e:e5:d6:f2:
                    d5:27
                Exponent: 65537 (0x10001)
        X509v3 extensions:
            X509v3 Subject Key Identifier: 
                90:C1:C8:D3:5B:5B:B4:9D:BE:80:9B:8E:53:CC:19:9F:28:03:C3:30
            X509v3 Basic Constraints: 
                CA:FALSE
            X509v3 Key Usage: 
                Digital Signature, Non Repudiation, Key Encipherment
            Netscape Cert Type: 
                SSL Client, S/MIME
            Netscape Comment: 
                OpenSSL Generated Certificate
            X509v3 Authority Key Identifier: 
                keyid:0A:1E:EA:6E:A8:4F:8C:7C:00:C0:0C:C4:A2:B4:73:EE:3F:3E:8E:29
                DirName:/C=PT/ST=Lisbon/O=SecureSMS
                serial:D0:CA:F9:A7:2D:E2:8E:BA

    Signature Algorithm: sha1WithRSAEncryption
         3c:12:89:20:cd:18:6d:08:0a:32:24:5c:40:7c:93:fb:e5:a6:
         f0:9d:d9:1a:6b:68:9e:e6:9d:c8:a2:d9:58:5f:9d:e1:66:e1:
         3f:38:37:37:72:cd:38:47:0d:8a:6c:b4:81:ca:c7:2b:c3:cd:
         56:14:11:ff:b7:49:d6:c8:39:83:5b:4c:7b:6c:b8:b9:00:54:
         30:50:bb:29:1d:80:3b:eb:76:be:e7:88:2c:96:90:61:fc:84:
         74:55:6b:b6:d4:7b:19:d6:16:54:b9:0f:21:41:3f:6f:e1:c9:
         86:58:1e:13:d2:ea:b2:3f:ab:76:42:62:cf:13:98:09:b6:d9:
         e9:f1
-----BEGIN CERTIFICATE-----
MIIDejCCAuOgAwIBAgIDEAACMA0GCSqGSIb3DQEBBQUAMDIxCzAJBgNVBAYTAlBU
MQ8wDQYDVQQIDAZMaXNib24xEjAQBgNVBAoMCVNlY3VyZVNNUzAeFw0xNTExMTUx
NDEzNDNaFw0xNjExMTQxNDEzNDNaMGwxCzAJBgNVBAYTAlBUMQ8wDQYDVQQIDAZM
aXNib24xDzANBgNVBAcMBkxpc2JvbjESMBAGA1UECgwJU2VjdXJlU01TMRMwEQYD
VQQLDApFbmNyeXB0aW9uMRIwEAYDVQQDDAk5MTg2MzQ4MDEwggEiMA0GCSqGSIb3
DQEBAQUAA4IBDwAwggEKAoIBAQDfoE67EOgU86HTlp+GYiQYWsIJIvllUbuH/upl
BKDJBuomqEqu83uafQJ+WgI8S4yNmrqVUtvrHjI0nJGHgMO4NgtwW0OCBRiLwQfU
uEfFhfqaPerKzfgg4Zf6ow0pxf8CibibkpZ5ZlqkQkhUsgf24AacWydh48s3zvma
F+snW0cfW+2bezCZDkubiy9SCDHFeFsGsJTS7cXFjqRpZi6sBnszTdaQ5qkzhgMZ
SOzBbfSiaAn8VwvcanylGk/6Ph+jlsgl9NeyGD7yzKk3L06iGRhxbyosIjEwl6lh
e9Jzns6R5OJkAm3TWA4lYaQW16U2Du/mXMxTXTzijuXW8tUnAgMBAAGjgd8wgdww
HQYDVR0OBBYEFJDByNNbW7SdvoCbjlPMGZ8oA8MwMAkGA1UdEwQCMAAwCwYDVR0P
BAQDAgXgMBEGCWCGSAGG+EIBAQQEAwIFoDAsBglghkgBhvhCAQ0EHxYdT3BlblNT
TCBHZW5lcmF0ZWQgQ2VydGlmaWNhdGUwYgYDVR0jBFswWYAUCh7qbqhPjHwAwAzE
orRz7j8+jimhNqQ0MDIxCzAJBgNVBAYTAlBUMQ8wDQYDVQQIDAZMaXNib24xEjAQ
BgNVBAoMCVNlY3VyZVNNU4IJANDK+act4o66MA0GCSqGSIb3DQEBBQUAA4GBADwS
iSDNGG0ICjIkXEB8k/vlpvCd2RpraJ7mncii2VhfneFm4T84NzdyzThHDYpstIHK
xyvDzVYUEf+3SdbIOYNbTHtsuLkAVDBQuykdgDvrdr7niCyWkGH8hHRVa7bUexnW
FlS5DyFBP2/hyYZYHhPS6rI/q3ZCYs8TmAm22enx
-----END CERTIFICATE-----
