Certificate:
    Data:
        Version: 3 (0x2)
        Serial Number: 1048577 (0x100001)
    Signature Algorithm: sha1WithRSAEncryption
        Issuer: C=PT, ST=Lisbon, O=SecureSMS
        Validity
            Not Before: Nov 15 14:05:47 2015 GMT
            Not After : Nov 14 14:05:47 2016 GMT
        Subject: C=PT, ST=Lisbon, L=Lisbon, O=SecureSMS, OU=Joao Neves, CN=918634801
        Subject Public Key Info:
            Public Key Algorithm: id-ecPublicKey
                Public-Key: (225 bit)
                pub: 
                    04:15:75:85:b9:99:d1:e5:d9:7d:af:42:91:29:61:
                    4e:c6:5c:3d:d8:51:f3:36:35:fd:5b:99:c2:80:20:
                    36:6a:25:17:c7:77:d7:84:3e:97:8f:52:87:29:c9:
                    6c:e3:16:f3:92:ab:1c:4d:8a:8e:79:0e
                Field Type: prime-field
                Prime:
                    00:ff:ff:ff:ff:ff:ff:ff:ff:ff:ff:ff:ff:ff:ff:
                    ff:ff:ff:ff:ff:ff:ff:ff:ff:fe:ff:ff:e5:6d
                A:    0
                B:    5 (0x5)
                Generator (uncompressed):
                    04:a1:45:5b:33:4d:f0:99:df:30:fc:28:a1:69:a4:
                    67:e9:e4:70:75:a9:0f:7e:65:0e:b6:b7:a4:5c:7e:
                    08:9f:ed:7f:ba:34:42:82:ca:fb:d6:f7:e3:19:f7:
                    c0:b0:bd:59:e2:ca:4b:db:55:6d:61:a5
                Order: 
                    01:00:00:00:00:00:00:00:00:00:00:00:00:00:01:
                    dc:e8:d2:ec:61:84:ca:f0:a9:71:76:9f:b1:f7
                Cofactor:  1 (0x1)
        X509v3 extensions:
            X509v3 Subject Key Identifier: 
                36:27:D6:24:A8:72:6B:8A:44:27:F4:70:2F:7A:73:D4:3F:18:5D:75
            X509v3 Basic Constraints: 
                CA:FALSE
            X509v3 Key Usage: 
                Digital Signature, Non Repudiation, Key Encipherment
            Netscape Cert Type: 
                SSL Client, S/MIME
            Netscape Comment: 
                OpenSSL Generated Certificate
            X509v3 Authority Key Identifier: 
                keyid:0A:1E:EA:6E:A8:4F:8C:7C:00:C0:0C:C4:A2:B4:73:EE:3F:3E:8E:29
                DirName:/C=PT/ST=Lisbon/O=SecureSMS
                serial:D0:CA:F9:A7:2D:E2:8E:BA

    Signature Algorithm: sha1WithRSAEncryption
         a2:7a:d3:90:58:ad:f7:33:68:0c:7c:47:d4:e6:d5:23:d5:79:
         b9:58:32:79:be:6b:bd:46:d8:23:fd:f8:be:88:71:47:e8:d2:
         bb:a9:e8:53:7a:bd:04:4c:b6:7f:a2:06:53:d4:5d:bf:5d:a4:
         cd:1a:a3:ed:43:08:ee:19:1c:2b:eb:3a:bd:ae:15:5b:61:1d:
         a9:41:a7:95:49:ab:52:c1:57:a6:60:3c:92:d1:5f:0d:82:d2:
         41:76:ff:5e:33:72:c5:18:89:ed:4d:b1:7e:8c:6d:6a:d6:42:
         a5:00:79:03:37:3d:04:55:ac:1b:83:c2:e7:34:8e:9a:54:8f:
         b1:ba
-----BEGIN CERTIFICATE-----
MIIDNDCCAp2gAwIBAgIDEAABMA0GCSqGSIb3DQEBBQUAMDIxCzAJBgNVBAYTAlBU
MQ8wDQYDVQQIDAZMaXNib24xEjAQBgNVBAoMCVNlY3VyZVNNUzAeFw0xNTExMTUx
NDA1NDdaFw0xNjExMTQxNDA1NDdaMGwxCzAJBgNVBAYTAlBUMQ8wDQYDVQQIDAZM
aXNib24xDzANBgNVBAcMBkxpc2JvbjESMBAGA1UECgwJU2VjdXJlU01TMRMwEQYD
VQQLDApKb2FvIE5ldmVzMRIwEAYDVQQDDAk5MTg2MzQ4MDEwgd0wgZ4GByqGSM49
AgEwgZICAQEwKAYHKoZIzj0BAQIdAP///////////////////////////////v//
5W0wBgQBAAQBBQQ5BKFFWzNN8JnfMPwooWmkZ+nkcHWpD35lDra3pFx+CJ/tf7o0
QoLK+9b34xn3wLC9WeLKS9tVbWGlAh0BAAAAAAAAAAAAAAAAAAHc6NLsYYTK8Klx
dp+x9wIBAQM6AAQVdYW5mdHl2X2vQpEpYU7GXD3YUfM2Nf1bmcKAIDZqJRfHd9eE
PpePUocpyWzjFvOSqxxNio55DqOB3zCB3DAdBgNVHQ4EFgQUNifWJKhya4pEJ/Rw
L3pz1D8YXXUwCQYDVR0TBAIwADALBgNVHQ8EBAMCBeAwEQYJYIZIAYb4QgEBBAQD
AgWgMCwGCWCGSAGG+EIBDQQfFh1PcGVuU1NMIEdlbmVyYXRlZCBDZXJ0aWZpY2F0
ZTBiBgNVHSMEWzBZgBQKHupuqE+MfADADMSitHPuPz6OKaE2pDQwMjELMAkGA1UE
BhMCUFQxDzANBgNVBAgMBkxpc2JvbjESMBAGA1UECgwJU2VjdXJlU01TggkA0Mr5
py3ijrowDQYJKoZIhvcNAQEFBQADgYEAonrTkFit9zNoDHxH1ObVI9V5uVgyeb5r
vUbYI/34vohxR+jSu6noU3q9BEy2f6IGU9Rdv12kzRqj7UMI7hkcK+s6va4VW2Ed
qUGnlUmrUsFXpmA8ktFfDYLSQXb/XjNyxRiJ7U2xfoxtatZCpQB5Azc9BFWsG4PC
5zSOmlSPsbo=
-----END CERTIFICATE-----
